; Function Attrs: mustprogress nounwind uwtable
define void @opencc_convert_utf8_free(ptr noundef %0) local_unnamed_addr #1 {
  %2 = icmp eq ptr %0, null
  br i1 %2, label %4, label %3

3:                                                ; preds = %1
  tail call void @_ZdaPv(ptr noundef nonnull %0) #22
  br label %4

4:                                                ; preds = %3, %1
  ret void
}